target datalayout = "e-m:e-p270:32:32-p271:32:32-p272:64:64-i64:64-i128:128-f80:128-n8:16:32:64-S128"
target triple = "x86_64-pc-linux-gnu"

%class.ImageLocation = type { [8 x i64] }
%class.ImageFileReader = type { ptr, i32, i32, ptr, i64, %class.ImageHeader, i64, ptr, ptr, ptr, ptr, ptr, ptr }
%class.ImageHeader = type { i32, i32, i32, i32, i32, i32, i32 }
%class.ImageStrings = type <{ ptr, i32, [4 x i8] }>

; Function Attrs: mustprogress nounwind uwtable
define linkonce_odr hidden noundef ptr @_ZNK12ImageStrings3getEj(ptr noundef nonnull align 8 dereferenceable(12) %0, i32 noundef %1) #0 comdat align 2 {
  %3 = alloca ptr, align 8
  %4 = alloca i32, align 4
  store ptr %0, ptr %3, align 8
  store i32 %1, ptr %4, align 4
  %5 = load ptr, ptr %3, align 8
  %6 = getelementptr inbounds %class.ImageStrings, ptr %5, i32 0, i32 0
  %7 = load ptr, ptr %6, align 8
  %8 = load i32, ptr %4, align 4
  %9 = zext i32 %8 to i64
  %10 = getelementptr inbounds i8, ptr %7, i64 %9
  ret ptr %10
}

; Function Attrs: mustprogress nounwind uwtable
define linkonce_odr hidden noundef i64 @_ZNK13ImageLocation13get_attributeEh(ptr noundef nonnull align 8 dereferenceable(64) %0, i8 noundef zeroext %1) #0 comdat align 2 {
  %3 = alloca ptr, align 8
  %4 = alloca i8, align 1
  store ptr %0, ptr %3, align 8
  store i8 %1, ptr %4, align 1
  %5 = load ptr, ptr %3, align 8
  %6 = getelementptr inbounds %class.ImageLocation, ptr %5, i32 0, i32 0
  %7 = load i8, ptr %4, align 1
  %8 = zext i8 %7 to i64
  %9 = getelementptr inbounds [8 x i64], ptr %6, i64 0, i64 %8
  %10 = load i64, ptr %9, align 8
  ret i64 %10
}

; Function Attrs: mustprogress nounwind uwtable
define hidden noundef ptr @_ZN12ImageStrings11starts_withEPKcS1_(ptr noundef %0, ptr noundef %1) #0 align 2 {
  %3 = alloca ptr, align 8
  %4 = alloca ptr, align 8
  %5 = alloca ptr, align 8
  %6 = alloca i8, align 1
  %7 = alloca i8, align 1
  store ptr %0, ptr %4, align 8
  store ptr %1, ptr %5, align 8
  br label %8

8:                                                ; preds = %25, %2
  %9 = load ptr, ptr %4, align 8
  %10 = load i8, ptr %9, align 1
  store i8 %10, ptr %6, align 1
  %11 = icmp ne i8 %10, 0
  br i1 %11, label %12, label %16

12:                                               ; preds = %8
  %13 = load ptr, ptr %5, align 8
  %14 = load i8, ptr %13, align 1
  store i8 %14, ptr %7, align 1
  %15 = icmp ne i8 %14, 0
  br label %16

16:                                               ; preds = %12, %8
  %17 = phi i1 [ false, %8 ], [ %15, %12 ]
  br i1 %17, label %18, label %30

18:                                               ; preds = %16
  %19 = load i8, ptr %6, align 1
  %20 = sext i8 %19 to i32
  %21 = load i8, ptr %7, align 1
  %22 = sext i8 %21 to i32
  %23 = icmp ne i32 %20, %22
  br i1 %23, label %24, label %25

24:                                               ; preds = %18
  store ptr null, ptr %3, align 8
  br label %32

25:                                               ; preds = %18
  %26 = load ptr, ptr %4, align 8
  %27 = getelementptr inbounds i8, ptr %26, i32 1
  store ptr %27, ptr %4, align 8
  %28 = load ptr, ptr %5, align 8
  %29 = getelementptr inbounds i8, ptr %28, i32 1
  store ptr %29, ptr %5, align 8
  br label %8, !llvm.loop !8

30:                                               ; preds = %16
  %31 = load ptr, ptr %4, align 8
  store ptr %31, ptr %3, align 8
  br label %32

32:                                               ; preds = %30, %24
  %33 = load ptr, ptr %3, align 8
  ret ptr %33
}

; Function Attrs: mustprogress nounwind uwtable
define linkonce_odr hidden noundef ptr @_ZNK13ImageLocation13get_attributeEjRK12ImageStrings(ptr noundef nonnull align 8 dereferenceable(64) %0, i32 noundef %1, ptr noundef nonnull align 8 dereferenceable(12) %2) #0 comdat align 2 {
  %4 = alloca ptr, align 8
  %5 = alloca i32, align 4
  %6 = alloca ptr, align 8
  store ptr %0, ptr %4, align 8
  store i32 %1, ptr %5, align 4
  store ptr %2, ptr %6, align 8
  %7 = load ptr, ptr %4, align 8
  %8 = load ptr, ptr %6, align 8
  %9 = load i32, ptr %5, align 4
  %10 = trunc i32 %9 to i8
  %11 = call noundef i64 @_ZNK13ImageLocation13get_attributeEh(ptr noundef nonnull align 8 dereferenceable(64) %7, i8 noundef zeroext %10)
  %12 = trunc i64 %11 to i32
  %13 = call noundef ptr @_ZNK12ImageStrings3getEj(ptr noundef nonnull align 8 dereferenceable(12) %8, i32 noundef %12)
  ret ptr %13
}

; Function Attrs: mustprogress nounwind uwtable
define linkonce_odr hidden void @_ZN12ImageStringsC2EPhj(ptr noundef nonnull align 8 dereferenceable(12) %0, ptr noundef %1, i32 noundef %2) unnamed_addr #0 comdat align 2 {
  %4 = alloca ptr, align 8
  %5 = alloca ptr, align 8
  %6 = alloca i32, align 4
  store ptr %0, ptr %4, align 8
  store ptr %1, ptr %5, align 8
  store i32 %2, ptr %6, align 4
  %7 = load ptr, ptr %4, align 8
  %8 = getelementptr inbounds %class.ImageStrings, ptr %7, i32 0, i32 0
  %9 = load ptr, ptr %5, align 8
  store ptr %9, ptr %8, align 8
  %10 = getelementptr inbounds %class.ImageStrings, ptr %7, i32 0, i32 1
  %11 = load i32, ptr %6, align 4
  store i32 %11, ptr %10, align 8
  ret void
}

; Function Attrs: mustprogress uwtable
define linkonce_odr hidden noundef i32 @_ZNK11ImageHeader12strings_sizeEP6Endian(ptr noundef nonnull align 4 dereferenceable(28) %0, ptr noundef %1) #1 comdat align 2 {
  %3 = alloca ptr, align 8
  %4 = alloca ptr, align 8
  store ptr %0, ptr %3, align 8
  store ptr %1, ptr %4, align 8
  %5 = load ptr, ptr %3, align 8
  %6 = load ptr, ptr %4, align 8
  %7 = getelementptr inbounds %class.ImageHeader, ptr %5, i32 0, i32 6
  %8 = load i32, ptr %7, align 4
  %9 = load ptr, ptr %6, align 8
  %10 = getelementptr inbounds ptr, ptr %9, i64 1
  %11 = load ptr, ptr %10, align 8
  %12 = call noundef i32 %11(ptr noundef nonnull align 8 dereferenceable(8) %6, i32 noundef %8)
  ret i32 %12
}

; Function Attrs: mustprogress uwtable
define hidden noundef zeroext i1 @_ZNK15ImageFileReader15verify_locationER13ImageLocationPKc(ptr noundef nonnull align 8 dereferenceable(120) %0, ptr noundef nonnull align 8 dereferenceable(64) %1, ptr noundef %2) #1 align 2 {
  %4 = alloca i1, align 1
  %5 = alloca ptr, align 8
  %6 = alloca ptr, align 8
  %7 = alloca ptr, align 8
  %8 = alloca %class.ImageStrings, align 8
  %9 = alloca ptr, align 8
  %10 = alloca ptr, align 8
  %11 = alloca ptr, align 8
  %12 = alloca ptr, align 8
  %13 = alloca ptr, align 8
  store ptr %0, ptr %5, align 8
  store ptr %1, ptr %6, align 8
  store ptr %2, ptr %7, align 8
  %14 = load ptr, ptr %5, align 8
  %15 = getelementptr inbounds %class.ImageFileReader, ptr %14, i32 0, i32 11
  %16 = load ptr, ptr %15, align 8
  %17 = getelementptr inbounds %class.ImageFileReader, ptr %14, i32 0, i32 5
  %18 = getelementptr inbounds %class.ImageFileReader, ptr %14, i32 0, i32 3
  %19 = load ptr, ptr %18, align 8
  %20 = call noundef i32 @_ZNK11ImageHeader12strings_sizeEP6Endian(ptr noundef nonnull align 4 dereferenceable(28) %17, ptr noundef %19)
  call void @_ZN12ImageStringsC2EPhj(ptr noundef nonnull align 8 dereferenceable(12) %8, ptr noundef %16, i32 noundef %20)
  %21 = load ptr, ptr %7, align 8
  store ptr %21, ptr %9, align 8
  %22 = load ptr, ptr %6, align 8
  %23 = call noundef ptr @_ZNK13ImageLocation13get_attributeEjRK12ImageStrings(ptr noundef nonnull align 8 dereferenceable(64) %22, i32 noundef 1, ptr noundef nonnull align 8 dereferenceable(12) %8)
  store ptr %23, ptr %10, align 8
  %24 = load ptr, ptr %10, align 8
  %25 = load i8, ptr %24, align 1
  %26 = sext i8 %25 to i32
  %27 = icmp ne i32 %26, 0
  br i1 %27, label %28, label %49

28:                                               ; preds = %3
  %29 = load ptr, ptr %9, align 8
  %30 = getelementptr inbounds i8, ptr %29, i32 1
  store ptr %30, ptr %9, align 8
  %31 = load i8, ptr %29, align 1
  %32 = sext i8 %31 to i32
  %33 = icmp ne i32 %32, 47
  br i1 %33, label %34, label %35

34:                                               ; preds = %28
  store i1 false, ptr %4, align 1
  br label %104

35:                                               ; preds = %28
  %36 = load ptr, ptr %9, align 8
  %37 = load ptr, ptr %10, align 8
  %38 = call noundef ptr @_ZN12ImageStrings11starts_withEPKcS1_(ptr noundef %36, ptr noundef %37)
  store ptr %38, ptr %9, align 8
  %39 = icmp ne ptr %38, null
  br i1 %39, label %41, label %40

40:                                               ; preds = %35
  store i1 false, ptr %4, align 1
  br label %104

41:                                               ; preds = %35
  %42 = load ptr, ptr %9, align 8
  %43 = getelementptr inbounds i8, ptr %42, i32 1
  store ptr %43, ptr %9, align 8
  %44 = load i8, ptr %42, align 1
  %45 = sext i8 %44 to i32
  %46 = icmp ne i32 %45, 47
  br i1 %46, label %47, label %48

47:                                               ; preds = %41
  store i1 false, ptr %4, align 1
  br label %104

48:                                               ; preds = %41
  br label %49

49:                                               ; preds = %48, %3
  %50 = load ptr, ptr %6, align 8
  %51 = call noundef ptr @_ZNK13ImageLocation13get_attributeEjRK12ImageStrings(ptr noundef nonnull align 8 dereferenceable(64) %50, i32 noundef 2, ptr noundef nonnull align 8 dereferenceable(12) %8)
  store ptr %51, ptr %11, align 8
  %52 = load ptr, ptr %11, align 8
  %53 = load i8, ptr %52, align 1
  %54 = sext i8 %53 to i32
  %55 = icmp ne i32 %54, 0
  br i1 %55, label %56, label %70

56:                                               ; preds = %49
  %57 = load ptr, ptr %9, align 8
  %58 = load ptr, ptr %11, align 8
  %59 = call noundef ptr @_ZN12ImageStrings11starts_withEPKcS1_(ptr noundef %57, ptr noundef %58)
  store ptr %59, ptr %9, align 8
  %60 = icmp ne ptr %59, null
  br i1 %60, label %62, label %61

61:                                               ; preds = %56
  store i1 false, ptr %4, align 1
  br label %104

62:                                               ; preds = %56
  %63 = load ptr, ptr %9, align 8
  %64 = getelementptr inbounds i8, ptr %63, i32 1
  store ptr %64, ptr %9, align 8
  %65 = load i8, ptr %63, align 1
  %66 = sext i8 %65 to i32
  %67 = icmp ne i32 %66, 47
  br i1 %67, label %68, label %69

68:                                               ; preds = %62
  store i1 false, ptr %4, align 1
  br label %104

69:                                               ; preds = %62
  br label %70

70:                                               ; preds = %69, %49
  %71 = load ptr, ptr %6, align 8
  %72 = call noundef ptr @_ZNK13ImageLocation13get_attributeEjRK12ImageStrings(ptr noundef nonnull align 8 dereferenceable(64) %71, i32 noundef 3, ptr noundef nonnull align 8 dereferenceable(12) %8)
  store ptr %72, ptr %12, align 8
  %73 = load ptr, ptr %9, align 8
  %74 = load ptr, ptr %12, align 8
  %75 = call noundef ptr @_ZN12ImageStrings11starts_withEPKcS1_(ptr noundef %73, ptr noundef %74)
  store ptr %75, ptr %9, align 8
  %76 = icmp ne ptr %75, null
  br i1 %76, label %78, label %77

77:                                               ; preds = %70
  store i1 false, ptr %4, align 1
  br label %104

78:                                               ; preds = %70
  %79 = load ptr, ptr %6, align 8
  %80 = call noundef ptr @_ZNK13ImageLocation13get_attributeEjRK12ImageStrings(ptr noundef nonnull align 8 dereferenceable(64) %79, i32 noundef 4, ptr noundef nonnull align 8 dereferenceable(12) %8)
  store ptr %80, ptr %13, align 8
  %81 = load ptr, ptr %13, align 8
  %82 = load i8, ptr %81, align 1
  %83 = sext i8 %82 to i32
  %84 = icmp ne i32 %83, 0
  br i1 %84, label %85, label %99

85:                                               ; preds = %78
  %86 = load ptr, ptr %9, align 8
  %87 = getelementptr inbounds i8, ptr %86, i32 1
  store ptr %87, ptr %9, align 8
  %88 = load i8, ptr %86, align 1
  %89 = sext i8 %88 to i32
  %90 = icmp ne i32 %89, 46
  br i1 %90, label %91, label %92

91:                                               ; preds = %85
  store i1 false, ptr %4, align 1
  br label %104

92:                                               ; preds = %85
  %93 = load ptr, ptr %9, align 8
  %94 = load ptr, ptr %13, align 8
  %95 = call noundef ptr @_ZN12ImageStrings11starts_withEPKcS1_(ptr noundef %93, ptr noundef %94)
  store ptr %95, ptr %9, align 8
  %96 = icmp ne ptr %95, null
  br i1 %96, label %98, label %97

97:                                               ; preds = %92
  store i1 false, ptr %4, align 1
  br label %104

98:                                               ; preds = %92
  br label %99

99:                                               ; preds = %98, %78
  %100 = load ptr, ptr %9, align 8
  %101 = load i8, ptr %100, align 1
  %102 = sext i8 %101 to i32
  %103 = icmp eq i32 %102, 0
  store i1 %103, ptr %4, align 1
  br label %104

104:                                              ; preds = %99, %97, %91, %77, %68, %61, %47, %40, %34
  %105 = load i1, ptr %4, align 1
  ret i1 %105
}