; Function Attrs: mustprogress uwtable
define hidden noundef zeroext i1 @_ZNK15ImageFileReader15verify_locationER13ImageLocationPKc(ptr nocapture noundef nonnull readonly align 8 dereferenceable(120) %0, ptr nocapture noundef nonnull readonly align 8 dereferenceable(64) %1, ptr nocapture noundef readonly %2) local_unnamed_addr #1 align 2 {
  %4 = getelementptr inbounds i8, ptr %0, i64 104
  %5 = load ptr, ptr %4, align 8
  %6 = getelementptr inbounds i8, ptr %0, i64 16
  %7 = load ptr, ptr %6, align 8
  %8 = getelementptr inbounds i8, ptr %0, i64 56
  %9 = load i32, ptr %8, align 8
  %10 = load ptr, ptr %7, align 8
  %11 = getelementptr inbounds i8, ptr %10, i64 8
  %12 = load ptr, ptr %11, align 8
  %13 = tail call noundef i32 %12(ptr noundef nonnull align 8 dereferenceable(8) %7, i32 noundef %9)
  %14 = getelementptr inbounds i8, ptr %1, i64 8
  %15 = load i64, ptr %14, align 8
  %16 = and i64 %15, 4294967295
  %17 = getelementptr inbounds i8, ptr %5, i64 %16
  %18 = load i8, ptr %17, align 1
  %.not = icmp eq i8 %18, 0
  br i1 %.not, label %32, label %19

19:                                               ; preds = %3
  %20 = load i8, ptr %2, align 1
  %.not28 = icmp eq i8 %20, 47
  br i1 %.not28, label %21, label %_ZN12ImageStrings11starts_withEPKcS1_.exit

21:                                               ; preds = %19
  %22 = getelementptr inbounds i8, ptr %2, i64 1
  %23 = load i8, ptr %22, align 1
  %.not13.i = icmp eq i8 %23, 0
  br i1 %.not13.i, label %_ZN12ImageStrings11starts_withEPKcS1_.exit, label %.lr.ph.i

.lr.ph.i:                                         ; preds = %21, %26
  %.pr = phi i8 [ %29, %26 ], [ %23, %21 ]
  %.0715.i = phi ptr [ %27, %26 ], [ %22, %21 ]
  %.0814.i = phi ptr [ %28, %26 ], [ %17, %21 ]
  %24 = load i8, ptr %.0814.i, align 1
  %.not11.i = icmp eq i8 %24, 0
  br i1 %.not11.i, label %30, label %25

25:                                               ; preds = %.lr.ph.i
  %.not12.i = icmp eq i8 %.pr, %24
  br i1 %.not12.i, label %26, label %_ZN12ImageStrings11starts_withEPKcS1_.exit

26:                                               ; preds = %25
  %27 = getelementptr inbounds i8, ptr %.0715.i, i64 1
  %28 = getelementptr inbounds i8, ptr %.0814.i, i64 1
  %29 = load i8, ptr %27, align 1
  %.not.i = icmp eq i8 %29, 0
  br i1 %.not.i, label %_ZN12ImageStrings11starts_withEPKcS1_.exit, label %.lr.ph.i, !llvm.loop !8

30:                                               ; preds = %.lr.ph.i
  %31 = getelementptr inbounds i8, ptr %.0715.i, i64 1
  %.not30 = icmp eq i8 %.pr, 47
  br i1 %.not30, label %32, label %_ZN12ImageStrings11starts_withEPKcS1_.exit

32:                                               ; preds = %30, %3
  %.023 = phi ptr [ %31, %30 ], [ %2, %3 ]
  %33 = getelementptr inbounds i8, ptr %1, i64 16
  %34 = load i64, ptr %33, align 8
  %35 = and i64 %34, 4294967295
  %36 = getelementptr inbounds i8, ptr %5, i64 %35
  %37 = load i8, ptr %36, align 1
  %.not31 = icmp eq i8 %37, 0
  br i1 %.not31, label %48, label %38

38:                                               ; preds = %32
  %39 = load i8, ptr %.023, align 1
  %.not13.i38 = icmp eq i8 %39, 0
  br i1 %.not13.i38, label %_ZN12ImageStrings11starts_withEPKcS1_.exit, label %.lr.ph.i39.preheader

.lr.ph.i39thread-pre-split:                       ; preds = %43
  %40 = getelementptr inbounds i8, ptr %.0814.i4194, i64 1
  %.pr73 = load i8, ptr %40, align 1
  %.not11.i42 = icmp eq i8 %.pr73, 0
  br i1 %.not11.i42, label %46, label %.lr.ph.i39.preheader

.lr.ph.i39.preheader:                             ; preds = %38, %.lr.ph.i39thread-pre-split
  %.0814.i4194 = phi ptr [ %40, %.lr.ph.i39thread-pre-split ], [ %36, %38 ]
  %.0715.i4093 = phi ptr [ %44, %.lr.ph.i39thread-pre-split ], [ %.023, %38 ]
  %41 = phi i8 [ %45, %.lr.ph.i39thread-pre-split ], [ %39, %38 ]
  %42 = phi i8 [ %.pr73, %.lr.ph.i39thread-pre-split ], [ %37, %38 ]
  %.not12.i43 = icmp eq i8 %41, %42
  br i1 %.not12.i43, label %43, label %_ZN12ImageStrings11starts_withEPKcS1_.exit

43:                                               ; preds = %.lr.ph.i39.preheader
  %44 = getelementptr inbounds i8, ptr %.0715.i4093, i64 1
  %45 = load i8, ptr %44, align 1
  %.not.i45 = icmp eq i8 %45, 0
  br i1 %.not.i45, label %_ZN12ImageStrings11starts_withEPKcS1_.exit, label %.lr.ph.i39thread-pre-split, !llvm.loop !8

46:                                               ; preds = %.lr.ph.i39thread-pre-split
  %47 = getelementptr inbounds i8, ptr %.0715.i4093, i64 2
  %.not33 = icmp eq i8 %45, 47
  br i1 %.not33, label %48, label %_ZN12ImageStrings11starts_withEPKcS1_.exit

48:                                               ; preds = %46, %32
  %.1 = phi ptr [ %47, %46 ], [ %.023, %32 ]
  %49 = load i8, ptr %.1, align 1
  %.not13.i47 = icmp eq i8 %49, 0
  br i1 %.not13.i47, label %.loopexit, label %.lr.ph.i48.preheader

.lr.ph.i48.preheader:                             ; preds = %48
  %50 = getelementptr inbounds i8, ptr %1, i64 24
  %51 = load i64, ptr %50, align 8
  %52 = and i64 %51, 4294967295
  %53 = getelementptr inbounds i8, ptr %5, i64 %52
  br label %.lr.ph.i48

.lr.ph.i48:                                       ; preds = %.lr.ph.i48.preheader, %57
  %54 = phi i8 [ %60, %57 ], [ %49, %.lr.ph.i48.preheader ]
  %.0715.i49 = phi ptr [ %58, %57 ], [ %.1, %.lr.ph.i48.preheader ]
  %.0814.i50 = phi ptr [ %59, %57 ], [ %53, %.lr.ph.i48.preheader ]
  %55 = load i8, ptr %.0814.i50, align 1
  %.not11.i51 = icmp eq i8 %55, 0
  br i1 %.not11.i51, label %.loopexit, label %56

56:                                               ; preds = %.lr.ph.i48
  %.not12.i52 = icmp eq i8 %54, %55
  br i1 %.not12.i52, label %57, label %_ZN12ImageStrings11starts_withEPKcS1_.exit

57:                                               ; preds = %56
  %58 = getelementptr inbounds i8, ptr %.0715.i49, i64 1
  %59 = getelementptr inbounds i8, ptr %.0814.i50, i64 1
  %60 = load i8, ptr %58, align 1
  %.not.i54 = icmp eq i8 %60, 0
  br i1 %.not.i54, label %.loopexit, label %.lr.ph.i48, !llvm.loop !8

.loopexit:                                        ; preds = %.lr.ph.i48, %57, %48
  %61 = phi i8 [ 0, %48 ], [ %54, %.lr.ph.i48 ], [ 0, %57 ]
  %.0.i53.ph = phi ptr [ %.1, %48 ], [ %.0715.i49, %.lr.ph.i48 ], [ %58, %57 ]
  %62 = getelementptr inbounds i8, ptr %1, i64 32
  %63 = load i64, ptr %62, align 8
  %64 = and i64 %63, 4294967295
  %65 = getelementptr inbounds i8, ptr %5, i64 %64
  %66 = load i8, ptr %65, align 1
  %.not35 = icmp eq i8 %66, 0
  br i1 %.not35, label %_ZN12ImageStrings11starts_withEPKcS1_.exit64.thread, label %67

67:                                               ; preds = %.loopexit
  %.not36 = icmp eq i8 %61, 46
  br i1 %.not36, label %68, label %_ZN12ImageStrings11starts_withEPKcS1_.exit

68:                                               ; preds = %67
  %69 = getelementptr inbounds i8, ptr %.0.i53.ph, i64 1
  %70 = load i8, ptr %69, align 1
  %.not13.i56 = icmp eq i8 %70, 0
  br i1 %.not13.i56, label %_ZN12ImageStrings11starts_withEPKcS1_.exit64.thread, label %.lr.ph.i57

.lr.ph.i57:                                       ; preds = %68, %74
  %71 = phi i8 [ %77, %74 ], [ %70, %68 ]
  %.0715.i58 = phi ptr [ %75, %74 ], [ %69, %68 ]
  %.0814.i59 = phi ptr [ %76, %74 ], [ %65, %68 ]
  %72 = load i8, ptr %.0814.i59, align 1
  %.not11.i60 = icmp eq i8 %72, 0
  br i1 %.not11.i60, label %_ZN12ImageStrings11starts_withEPKcS1_.exit64.thread, label %73

73:                                               ; preds = %.lr.ph.i57
  %.not12.i61 = icmp eq i8 %71, %72
  br i1 %.not12.i61, label %74, label %_ZN12ImageStrings11starts_withEPKcS1_.exit

74:                                               ; preds = %73
  %75 = getelementptr inbounds i8, ptr %.0715.i58, i64 1
  %76 = getelementptr inbounds i8, ptr %.0814.i59, i64 1
  %77 = load i8, ptr %75, align 1
  %.not.i63 = icmp eq i8 %77, 0
  br i1 %.not.i63, label %_ZN12ImageStrings11starts_withEPKcS1_.exit64.thread, label %.lr.ph.i57, !llvm.loop !8

_ZN12ImageStrings11starts_withEPKcS1_.exit64.thread: ; preds = %74, %.lr.ph.i57, %68, %.loopexit
  %78 = phi i8 [ %61, %.loopexit ], [ 0, %68 ], [ 1, %.lr.ph.i57 ], [ 0, %74 ]
  %79 = icmp eq i8 %78, 0
  br label %_ZN12ImageStrings11starts_withEPKcS1_.exit

_ZN12ImageStrings11starts_withEPKcS1_.exit:       ; preds = %26, %25, %43, %.lr.ph.i39.preheader, %56, %73, %38, %21, %67, %46, %30, %19, %_ZN12ImageStrings11starts_withEPKcS1_.exit64.thread
  %.0 = phi i1 [ %79, %_ZN12ImageStrings11starts_withEPKcS1_.exit64.thread ], [ false, %19 ], [ false, %30 ], [ false, %46 ], [ false, %67 ], [ false, %21 ], [ false, %38 ], [ false, %73 ], [ false, %56 ], [ false, %.lr.ph.i39.preheader ], [ false, %43 ], [ false, %25 ], [ false, %26 ]
  ret i1 %.0
}